	.file	"demo3_3.cpp"
	.text
	.globl	_Z3sumif
	.type	_Z3sumif, @function
_Z3sumif:
.LFB0:
	.cfi_startproc
	pushq	%rbp
	.cfi_def_cfa_offset 16
	.cfi_offset 6, -16
	movq	%rsp, %rbp
	.cfi_def_cfa_register 6
	movl	%edi, -4(%rbp)
	movss	%xmm0, -8(%rbp)
	cvtsi2ss	-4(%rbp), %xmm0
	addss	-8(%rbp), %xmm0
	popq	%rbp
	.cfi_def_cfa 7, 8
	ret
	.cfi_endproc
.LFE0:
	.size	_Z3sumif, .-_Z3sumif
	.globl	_Z3sumfi
	.type	_Z3sumfi, @function
_Z3sumfi:
.LFB1:
	.cfi_startproc
	pushq	%rbp
	.cfi_def_cfa_offset 16
	.cfi_offset 6, -16
	movq	%rsp, %rbp
	.cfi_def_cfa_register 6
	movss	%xmm0, -4(%rbp)
	movl	%edi, -8(%rbp)
	cvtsi2ss	-8(%rbp), %xmm0
	addss	-4(%rbp), %xmm0
	popq	%rbp
	.cfi_def_cfa 7, 8
	ret
	.cfi_endproc
.LFE1:
	.size	_Z3sumfi, .-_Z3sumfi
	.section	.rodata
.LC2:
	.string	"\n ans=%.2f"
	.text
	.globl	main
	.type	main, @function
main:
.LFB2:
	.cfi_startproc
	pushq	%rbp
	.cfi_def_cfa_offset 16
	.cfi_offset 6, -16
	movq	%rsp, %rbp
	.cfi_def_cfa_register 6
	subq	$16, %rsp
	pxor	%xmm0, %xmm0
	movss	%xmm0, -4(%rbp)
	movl	$10, %edi
	movss	.LC1(%rip), %xmm0
	call	_Z3sumfi
	movd	%xmm0, %eax
	movl	%eax, -4(%rbp)
	cvtss2sd	-4(%rbp), %xmm0
	leaq	.LC2(%rip), %rdi
	movl	$1, %eax
	call	printf@PLT
	movss	.LC3(%rip), %xmm0
	movl	$10, %edi
	call	_Z3sumif
	movd	%xmm0, %eax
	movl	%eax, -4(%rbp)
	cvtss2sd	-4(%rbp), %xmm0
	leaq	.LC2(%rip), %rdi
	movl	$1, %eax
	call	printf@PLT
	movl	$0, %eax
	leave
	.cfi_def_cfa 7, 8
	ret
	.cfi_endproc
.LFE2:
	.size	main, .-main
	.section	.rodata
	.align 4
.LC1:
	.long	1092825907
	.align 4
.LC3:
	.long	1101109658
	.ident	"GCC: (Ubuntu 7.5.0-3ubuntu1~18.04) 7.5.0"
	.section	.note.GNU-stack,"",@progbits
